target datalayout = "e-m:e-p270:32:32-p271:32:32-p272:64:64-i64:64-i128:128-f80:128-n8:16:32:64-S128"
target triple = "x86_64-pc-linux-gnu"

%"class.icu_77::Normalizer" = type <{ %"class.icu_77::UObject", ptr, ptr, i32, i32, ptr, i32, i32, %"class.icu_77::UnicodeString", i32, [4 x i8] }>
%"class.icu_77::UObject" = type { ptr }
%"class.icu_77::UnicodeString" = type { %"class.icu_77::Replaceable", %"union.icu_77::UnicodeString::StackBufferOrFields" }
%"class.icu_77::Replaceable" = type { %"class.icu_77::UObject" }
%"union.icu_77::UnicodeString::StackBufferOrFields" = type { %struct.anon.0, [32 x i8] }
%struct.anon.0 = type { i16, i32, i32, ptr }

; Function Attrs: mustprogress uwtable
define void @_ZN6icu_7710Normalizer9setOptionEia(ptr noundef nonnull align 8 dereferenceable(116) %0, i32 noundef %1, i8 noundef signext %2) #1 align 2 {
  %4 = alloca ptr, align 8
  %5 = alloca i32, align 4
  %6 = alloca i8, align 1
  store ptr %0, ptr %4, align 8, !tbaa !3
  store i32 %1, ptr %5, align 4, !tbaa !37
  store i8 %2, ptr %6, align 1, !tbaa !32
  %7 = load ptr, ptr %4, align 8
  %8 = load i8, ptr %6, align 1, !tbaa !32
  %9 = icmp ne i8 %8, 0
  br i1 %9, label %10, label %15

10:                                               ; preds = %3
  %11 = load i32, ptr %5, align 4, !tbaa !37
  %12 = getelementptr inbounds nuw %"class.icu_77::Normalizer", ptr %7, i32 0, i32 4
  %13 = load i32, ptr %12, align 4, !tbaa !25
  %14 = or i32 %13, %11
  store i32 %14, ptr %12, align 4, !tbaa !25
  br label %21

15:                                               ; preds = %3
  %16 = load i32, ptr %5, align 4, !tbaa !37
  %17 = xor i32 %16, -1
  %18 = getelementptr inbounds nuw %"class.icu_77::Normalizer", ptr %7, i32 0, i32 4
  %19 = load i32, ptr %18, align 4, !tbaa !25
  %20 = and i32 %19, %17
  store i32 %20, ptr %18, align 4, !tbaa !25
  br label %21

21:                                               ; preds = %15, %10
  call void @_ZN6icu_7710Normalizer4initEv(ptr noundef nonnull align 8 dereferenceable(116) %7)
  ret void
}