; Function Attrs: mustprogress uwtable
define void @_ZN6icu_7710Normalizer9setOptionEia(ptr noundef nonnull align 8 captures(none) dereferenceable(116) initializes((16, 24)) %0, i32 noundef %1, i8 noundef signext %2) local_unnamed_addr #1 align 2 {
  %.not = icmp eq i8 %2, 0
  br i1 %.not, label %8, label %4

4:                                                ; preds = %3
  %5 = getelementptr inbounds nuw i8, ptr %0, i64 28
  %6 = load i32, ptr %5, align 4, !tbaa !18
  %7 = or i32 %6, %1
  store i32 %7, ptr %5, align 4, !tbaa !18
  br label %13

8:                                                ; preds = %3
  %9 = xor i32 %1, -1
  %10 = getelementptr inbounds nuw i8, ptr %0, i64 28
  %11 = load i32, ptr %10, align 4, !tbaa !18
  %12 = and i32 %11, %9
  store i32 %12, ptr %10, align 4, !tbaa !18
  br label %13

13:                                               ; preds = %8, %4
  tail call void @_ZN6icu_7710Normalizer4initEv(ptr noundef nonnull align 8 dereferenceable(116) %0)
  ret void
}